target datalayout = "e-m:e-p270:32:32-p271:32:32-p272:64:64-i64:64-i128:128-f80:128-n8:16:32:64-S128"
target triple = "x86_64-pc-linux-gnu"

%"class.boost::fibers::fiber" = type { %"class.boost::intrusive_ptr" }
%"class.boost::intrusive_ptr" = type { ptr }
%"class.boost::fibers::context" = type { ptr, %"struct.std::atomic", %"class.boost::intrusive::slist_member_hook", %"class.boost::fibers::detail::spinlock_ttas", i8, %"class.boost::fibers::wait_queue", %"struct.std::atomic", ptr, %"class.std::map", %"class.boost::intrusive::set_member_hook", %"class.boost::fibers::waker", %"class.boost::intrusive::list_member_hook", %"class.boost::intrusive::slist_member_hook.5", %"class.boost::intrusive::list_member_hook.6", ptr, %"class.boost::context::fiber", %"class.std::chrono::time_point", i32, i32 }
%"class.boost::intrusive::slist_member_hook" = type { %"class.boost::intrusive::generic_hook" }
%"class.boost::intrusive::generic_hook" = type { %"struct.boost::intrusive::slist_node" }
%"struct.boost::intrusive::slist_node" = type { ptr }
%"class.boost::fibers::detail::spinlock_ttas" = type { %"struct.std::atomic.0" }
%"struct.std::atomic.0" = type { i32 }
%"class.boost::fibers::wait_queue" = type { %"class.boost::intrusive::slist" }
%"class.boost::intrusive::slist" = type { %"class.boost::intrusive::slist_impl" }
%"class.boost::intrusive::slist_impl" = type { %"struct.boost::intrusive::slist_impl<boost::intrusive::mhtraits<boost::fibers::waker_with_hook, boost::intrusive::slist_member_hook<>, &boost::fibers::waker_with_hook::waker_queue_hook_>, unsigned long, 4, void>::data_t" }
%"struct.boost::intrusive::slist_impl<boost::intrusive::mhtraits<boost::fibers::waker_with_hook, boost::intrusive::slist_member_hook<>, &boost::fibers::waker_with_hook::waker_queue_hook_>, unsigned long, 4, void>::data_t" = type { %"struct.boost::intrusive::slist_impl<boost::intrusive::mhtraits<boost::fibers::waker_with_hook, boost::intrusive::slist_member_hook<>, &boost::fibers::waker_with_hook::waker_queue_hook_>, unsigned long, 4, void>::root_plus_size" }
%"struct.boost::intrusive::slist_impl<boost::intrusive::mhtraits<boost::fibers::waker_with_hook, boost::intrusive::slist_member_hook<>, &boost::fibers::waker_with_hook::waker_queue_hook_>, unsigned long, 4, void>::root_plus_size" = type { %"struct.boost::intrusive::header_holder_plus_last" }
%"struct.boost::intrusive::header_holder_plus_last" = type { %"struct.boost::intrusive::detail::default_header_holder", ptr }
%"struct.boost::intrusive::detail::default_header_holder" = type { %"struct.boost::intrusive::slist_node" }
%"struct.std::atomic" = type { %"struct.std::__atomic_base" }
%"struct.std::__atomic_base" = type { i64 }
%"class.std::map" = type { %"class.std::_Rb_tree" }
%"class.std::_Rb_tree" = type { %"struct.std::_Rb_tree<unsigned long, std::pair<const unsigned long, boost::fibers::context::fss_data>, std::_Select1st<std::pair<const unsigned long, boost::fibers::context::fss_data>>, std::less<unsigned long>>::_Rb_tree_impl" }
%"struct.std::_Rb_tree<unsigned long, std::pair<const unsigned long, boost::fibers::context::fss_data>, std::_Select1st<std::pair<const unsigned long, boost::fibers::context::fss_data>>, std::less<unsigned long>>::_Rb_tree_impl" = type { [8 x i8], %"struct.std::_Rb_tree_header" }
%"struct.std::_Rb_tree_header" = type { %"struct.std::_Rb_tree_node_base", i64 }
%"struct.std::_Rb_tree_node_base" = type { i32, ptr, ptr, ptr }
%"class.boost::intrusive::set_member_hook" = type { %"class.boost::intrusive::generic_hook.1" }
%"class.boost::intrusive::generic_hook.1" = type { %"struct.boost::intrusive::rbtree_node" }
%"struct.boost::intrusive::rbtree_node" = type { ptr, ptr, ptr, i32 }
%"class.boost::fibers::waker" = type { ptr, i64 }
%"class.boost::intrusive::list_member_hook" = type { %"class.boost::intrusive::generic_hook.3" }
%"class.boost::intrusive::generic_hook.3" = type { %"struct.boost::intrusive::list_node" }
%"struct.boost::intrusive::list_node" = type { ptr, ptr }
%"class.boost::intrusive::slist_member_hook.5" = type { %"class.boost::intrusive::generic_hook" }
%"class.boost::intrusive::list_member_hook.6" = type { %"class.boost::intrusive::generic_hook.3" }
%"class.boost::context::fiber" = type { ptr }
%"class.std::chrono::time_point" = type { %"class.std::chrono::duration" }
%"class.std::chrono::duration" = type { i64 }

; Function Attrs: mustprogress nounwind uwtable
define linkonce_odr hidden noundef ptr @_ZNK5boost6fibers7context13get_schedulerEv(ptr noundef nonnull align 8 dereferenceable(232) %0) #4 comdat align 2 {
  %2 = alloca ptr, align 8
  store ptr %0, ptr %2, align 8, !tbaa !3
  %3 = load ptr, ptr %2, align 8
  %4 = getelementptr inbounds nuw %"class.boost::fibers::context", ptr %3, i32 0, i32 7
  %5 = load ptr, ptr %4, align 8, !tbaa !51
  ret ptr %5
}

; Function Attrs: mustprogress nounwind uwtable
define linkonce_odr hidden noundef i32 @_ZNK5boost6fibers7context10get_policyEv(ptr noundef nonnull align 8 dereferenceable(232) %0) #4 comdat align 2 {
  %2 = alloca ptr, align 8
  store ptr %0, ptr %2, align 8, !tbaa !3
  %3 = load ptr, ptr %2, align 8
  %4 = getelementptr inbounds nuw %"class.boost::fibers::context", ptr %3, i32 0, i32 18
  %5 = load i32, ptr %4, align 4, !tbaa !9
  ret i32 %5
}

; Function Attrs: mustprogress nounwind uwtable
define linkonce_odr hidden noundef ptr @_ZNK5boost13intrusive_ptrINS_6fibers7contextEEptEv(ptr noundef nonnull align 8 dereferenceable(8) %0) #4 comdat align 2 {
  %2 = alloca ptr, align 8
  store ptr %0, ptr %2, align 8, !tbaa !3
  %3 = load ptr, ptr %2, align 8
  %4 = getelementptr inbounds nuw %"class.boost::intrusive_ptr", ptr %3, i32 0, i32 0
  %5 = load ptr, ptr %4, align 8, !tbaa !7
  ret ptr %5
}

; Function Attrs: mustprogress nounwind uwtable
define linkonce_odr hidden noundef ptr @_ZNK5boost13intrusive_ptrINS_6fibers7contextEE3getEv(ptr noundef nonnull align 8 dereferenceable(8) %0) #4 comdat align 2 {
  %2 = alloca ptr, align 8
  store ptr %0, ptr %2, align 8, !tbaa !3
  %3 = load ptr, ptr %2, align 8
  %4 = getelementptr inbounds nuw %"class.boost::intrusive_ptr", ptr %3, i32 0, i32 0
  %5 = load ptr, ptr %4, align 8, !tbaa !7
  ret ptr %5
}

; Function Attrs: mustprogress nounwind uwtable
define void @_ZN5boost6fibers5fiber6start_Ev(ptr noundef nonnull align 8 dereferenceable(8) %0) #4 align 2 {
  %2 = alloca ptr, align 8
  %3 = alloca ptr, align 8
  store ptr %0, ptr %2, align 8, !tbaa !3
  %4 = load ptr, ptr %2, align 8
  call void @llvm.lifetime.start.p0(i64 8, ptr %3) #3
  %5 = call noundef ptr @_ZN5boost6fibers7context6activeEv() #3
  store ptr %5, ptr %3, align 8, !tbaa !3
  %6 = load ptr, ptr %3, align 8, !tbaa !3
  %7 = getelementptr inbounds nuw %"class.boost::fibers::fiber", ptr %4, i32 0, i32 0
  %8 = call noundef ptr @_ZNK5boost13intrusive_ptrINS_6fibers7contextEE3getEv(ptr noundef nonnull align 8 dereferenceable(8) %7) #3
  call void @_ZN5boost6fibers7context6attachEPS1_(ptr noundef nonnull align 8 dereferenceable(232) %6, ptr noundef %8) #3
  %9 = getelementptr inbounds nuw %"class.boost::fibers::fiber", ptr %4, i32 0, i32 0
  %10 = call noundef ptr @_ZNK5boost13intrusive_ptrINS_6fibers7contextEEptEv(ptr noundef nonnull align 8 dereferenceable(8) %9) #3
  %11 = call noundef i32 @_ZNK5boost6fibers7context10get_policyEv(ptr noundef nonnull align 8 dereferenceable(232) %10) #3
  switch i32 %11, label %21 [
    i32 1, label %12
    i32 0, label %17
  ]

12:                                               ; preds = %1
  %13 = load ptr, ptr %3, align 8, !tbaa !3
  %14 = call noundef ptr @_ZNK5boost6fibers7context13get_schedulerEv(ptr noundef nonnull align 8 dereferenceable(232) %13) #3
  %15 = getelementptr inbounds nuw %"class.boost::fibers::fiber", ptr %4, i32 0, i32 0
  %16 = call noundef ptr @_ZNK5boost13intrusive_ptrINS_6fibers7contextEE3getEv(ptr noundef nonnull align 8 dereferenceable(8) %15) #3
  call void @_ZN5boost6fibers9scheduler8scheduleEPNS0_7contextE(ptr noundef nonnull align 8 dereferenceable(137) %14, ptr noundef %16) #3
  br label %22

17:                                               ; preds = %1
  %18 = getelementptr inbounds nuw %"class.boost::fibers::fiber", ptr %4, i32 0, i32 0
  %19 = call noundef ptr @_ZNK5boost13intrusive_ptrINS_6fibers7contextEEptEv(ptr noundef nonnull align 8 dereferenceable(8) %18) #3
  %20 = load ptr, ptr %3, align 8, !tbaa !3
  call void @_ZN5boost6fibers7context6resumeEPS1_(ptr noundef nonnull align 8 dereferenceable(232) %19, ptr noundef %20) #3
  br label %22

21:                                               ; preds = %1
  br label %22

22:                                               ; preds = %21, %17, %12
  call void @llvm.lifetime.end.p0(i64 8, ptr %3) #3
  ret void
}