; Function Attrs: mustprogress nounwind uwtable
define void @_ZN5boost6fibers5fiber6start_Ev(ptr nocapture noundef nonnull readonly align 8 dereferenceable(8) %0) local_unnamed_addr #3 align 2 {
  %2 = tail call noundef ptr @_ZN5boost6fibers7context6activeEv() #17
  %3 = load ptr, ptr %0, align 8, !tbaa !3
  tail call void @_ZN5boost6fibers7context6attachEPS1_(ptr noundef nonnull align 8 dereferenceable(232) %2, ptr noundef %3) #17
  %4 = load ptr, ptr %0, align 8, !tbaa !3
  %5 = getelementptr inbounds nuw i8, ptr %4, i64 228
  %6 = load i32, ptr %5, align 4, !tbaa !8
  switch i32 %6, label %11 [
    i32 1, label %7
    i32 0, label %10
  ]

7:                                                ; preds = %1
  %8 = getelementptr inbounds nuw i8, ptr %2, i64 56
  %9 = load ptr, ptr %8, align 8, !tbaa !50
  tail call void @_ZN5boost6fibers9scheduler8scheduleEPNS0_7contextE(ptr noundef nonnull align 8 dereferenceable(137) %9, ptr noundef nonnull %4) #17
  br label %11

10:                                               ; preds = %1
  tail call void @_ZN5boost6fibers7context6resumeEPS1_(ptr noundef nonnull align 8 dereferenceable(232) %4, ptr noundef nonnull %2) #17
  br label %11

11:                                               ; preds = %1, %10, %7
  ret void
}